; Function Attrs: mustprogress nofree norecurse nosync nounwind willreturn memory(argmem: readwrite) uwtable
define hidden void @_ZN11FpuStackSim4swapEi(ptr nocapture noundef nonnull align 8 dereferenceable(44) %0, i32 noundef %1) local_unnamed_addr #2 align 2 {
  %3 = getelementptr inbounds i8, ptr %0, i64 8
  %4 = load i32, ptr %3, align 8
  %5 = add nsw i32 %4, -1
  %6 = sub nsw i32 %5, %1
  %7 = getelementptr inbounds i8, ptr %0, i64 12
  %8 = sext i32 %6 to i64
  %9 = getelementptr inbounds [8 x i32], ptr %7, i64 0, i64 %8
  %10 = load i32, ptr %9, align 4
  %11 = sext i32 %5 to i64
  %12 = getelementptr inbounds [8 x i32], ptr %7, i64 0, i64 %11
  %13 = load i32, ptr %12, align 4
  store i32 %13, ptr %9, align 4
  %14 = load i32, ptr %3, align 8
  %15 = add nsw i32 %14, -1
  %16 = sext i32 %15 to i64
  %17 = getelementptr inbounds [8 x i32], ptr %7, i64 0, i64 %16
  store i32 %10, ptr %17, align 4
  ret void
}